; ModuleID = '58/977.c'
source_filename = "58/977.c"
target datalayout = "e-m:e-p270:32:32-p271:32:32-p272:64:64-i64:64-f80:128-n8:16:32:64-S128"
target triple = "x86_64-pc-linux-gnu"

@.str = private unnamed_addr constant [3 x i8] c"%d\00", align 1
@.str.1 = private unnamed_addr constant [3 x i8] c"1\0A\00", align 1
@.str.2 = private unnamed_addr constant [3 x i8] c"0\0A\00", align 1

; Function Attrs: noinline nounwind uwtable
define dso_local i32 @main() #0 {
  %1 = alloca i32, align 4
  %2 = alloca i32, align 4
  %3 = alloca i32, align 4
  %4 = alloca i32, align 4
  %5 = alloca i32, align 4
  %6 = alloca [100 x i8], align 16
  %7 = alloca [12 x i8], align 1
  %8 = alloca i32, align 4
  store i32 0, i32* %1, align 4
  %9 = call i32 (i8*, ...) @__isoc99_scanf(i8* getelementptr inbounds ([3 x i8], [3 x i8]* @.str, i64 0, i64 0), i32* %2)
  %10 = getelementptr inbounds [12 x i8], [12 x i8]* %7, i64 0, i64 0
  %11 = call i32 (i8*, ...) bitcast (i32 (...)* @gets to i32 (i8*, ...)*)(i8* %10)
  store i32 0, i32* %3, align 4
  br label %12

12:                                               ; preds = %93, %0
  %13 = load i32, i32* %3, align 4
  %14 = load i32, i32* %2, align 4
  %15 = icmp slt i32 %13, %14
  br i1 %15, label %16, label %96

16:                                               ; preds = %12
  %17 = getelementptr inbounds [100 x i8], [100 x i8]* %6, i64 0, i64 0
  %18 = call i32 (i8*, ...) bitcast (i32 (...)* @gets to i32 (i8*, ...)*)(i8* %17)
  %19 = getelementptr inbounds [100 x i8], [100 x i8]* %6, i64 0, i64 0
  %20 = call i64 @strlen(i8* %19) #3
  %21 = trunc i64 %20 to i32
  store i32 %21, i32* %8, align 4
  store i32 0, i32* %4, align 4
  br label %22

22:                                               ; preds = %63, %16
  %23 = load i32, i32* %4, align 4
  %24 = load i32, i32* %8, align 4
  %25 = icmp slt i32 %23, %24
  br i1 %25, label %26, label %66

26:                                               ; preds = %22
  %27 = load i32, i32* %4, align 4
  %28 = sext i32 %27 to i64
  %29 = getelementptr inbounds [100 x i8], [100 x i8]* %6, i64 0, i64 %28
  %30 = load i8, i8* %29, align 1
  %31 = sext i8 %30 to i32
  %32 = icmp sge i32 %31, 65
  br i1 %32, label %33, label %40

33:                                               ; preds = %26
  %34 = load i32, i32* %4, align 4
  %35 = sext i32 %34 to i64
  %36 = getelementptr inbounds [100 x i8], [100 x i8]* %6, i64 0, i64 %35
  %37 = load i8, i8* %36, align 1
  %38 = sext i8 %37 to i32
  %39 = icmp sle i32 %38, 122
  br i1 %39, label %61, label %40

40:                                               ; preds = %33, %26
  %41 = load i32, i32* %4, align 4
  %42 = sext i32 %41 to i64
  %43 = getelementptr inbounds [100 x i8], [100 x i8]* %6, i64 0, i64 %42
  %44 = load i8, i8* %43, align 1
  %45 = sext i8 %44 to i32
  %46 = icmp sle i32 %45, 57
  br i1 %46, label %47, label %54

47:                                               ; preds = %40
  %48 = load i32, i32* %4, align 4
  %49 = sext i32 %48 to i64
  %50 = getelementptr inbounds [100 x i8], [100 x i8]* %6, i64 0, i64 %49
  %51 = load i8, i8* %50, align 1
  %52 = sext i8 %51 to i32
  %53 = icmp sge i32 %52, 48
  br i1 %53, label %61, label %54

54:                                               ; preds = %47, %40
  %55 = load i32, i32* %4, align 4
  %56 = sext i32 %55 to i64
  %57 = getelementptr inbounds [100 x i8], [100 x i8]* %6, i64 0, i64 %56
  %58 = load i8, i8* %57, align 1
  %59 = sext i8 %58 to i32
  %60 = icmp eq i32 %59, 95
  br i1 %60, label %61, label %62

61:                                               ; preds = %54, %47, %33
  br label %63

62:                                               ; preds = %54
  br label %66

63:                                               ; preds = %61
  %64 = load i32, i32* %4, align 4
  %65 = add nsw i32 %64, 1
  store i32 %65, i32* %4, align 4
  br label %22

66:                                               ; preds = %62, %22
  %67 = load i32, i32* %4, align 4
  %68 = load i32, i32* %8, align 4
  %69 = icmp eq i32 %67, %68
  br i1 %69, label %70, label %90

70:                                               ; preds = %66
  %71 = getelementptr inbounds [100 x i8], [100 x i8]* %6, i64 0, i64 0
  %72 = load i8, i8* %71, align 16
  %73 = sext i8 %72 to i32
  %74 = icmp sle i32 %73, 122
  br i1 %74, label %75, label %80

75:                                               ; preds = %70
  %76 = getelementptr inbounds [100 x i8], [100 x i8]* %6, i64 0, i64 0
  %77 = load i8, i8* %76, align 16
  %78 = sext i8 %77 to i32
  %79 = icmp sge i32 %78, 65
  br i1 %79, label %85, label %80

80:                                               ; preds = %75, %70
  %81 = getelementptr inbounds [100 x i8], [100 x i8]* %6, i64 0, i64 0
  %82 = load i8, i8* %81, align 16
  %83 = sext i8 %82 to i32
  %84 = icmp eq i32 %83, 95
  br i1 %84, label %85, label %87

85:                                               ; preds = %80, %75
  %86 = call i32 (i8*, ...) @printf(i8* getelementptr inbounds ([3 x i8], [3 x i8]* @.str.1, i64 0, i64 0))
  br label %89

87:                                               ; preds = %80
  %88 = call i32 (i8*, ...) @printf(i8* getelementptr inbounds ([3 x i8], [3 x i8]* @.str.2, i64 0, i64 0))
  br label %89

89:                                               ; preds = %87, %85
  br label %92

90:                                               ; preds = %66
  %91 = call i32 (i8*, ...) @printf(i8* getelementptr inbounds ([3 x i8], [3 x i8]* @.str.2, i64 0, i64 0))
  br label %92

92:                                               ; preds = %90, %89
  br label %93

93:                                               ; preds = %92
  %94 = load i32, i32* %3, align 4
  %95 = add nsw i32 %94, 1
  store i32 %95, i32* %3, align 4
  br label %12

96:                                               ; preds = %12
  %97 = call i32 @getchar()
  %98 = call i32 @getchar()
  %99 = call i32 @getchar()
  %100 = load i32, i32* %1, align 4
  ret i32 %100
}

declare dso_local i32 @__isoc99_scanf(i8*, ...) #1

declare dso_local i32 @gets(...) #1

; Function Attrs: nounwind readonly
declare dso_local i64 @strlen(i8*) #2

declare dso_local i32 @printf(i8*, ...) #1

declare dso_local i32 @getchar() #1


!llvm.module.flags = !{!0}
!llvm.ident = !{!1}

!0 = !{i32 1, !"wchar_size", i32 4}
!1 = !{!"clang version 10.0.0-4ubuntu1 "}
